target datalayout = "e-m:e-p270:32:32-p271:32:32-p272:64:64-i64:64-i128:128-f80:128-n8:16:32:64-S128"
target triple = "x86_64-pc-linux-gnu"

%struct.expert_field = type { i32, i32 }

@ei_nas_5gs_extraneous_data = internal global %struct.expert_field zeroinitializer, align 4
@de_nas_5gs_sm_5gsm_cap.flags1 = internal constant [6 x ptr] [ptr @hf_nas_5gs_sm_tpmic_b7, ptr @hf_nas_5gs_sm_atsss_st_b3_b6, ptr @hf_nas_5gs_sm_ept_s1_b2, ptr @hf_nas_5gs_sm_mh6_pdu_b1, ptr @hf_nas_5gs_sm_rqos_b0, ptr null], align 16
@de_nas_5gs_sm_5gsm_cap.flags2 = internal constant [9 x ptr] [ptr @hf_nas_5gs_spare_b7, ptr @hf_nas_5gs_spare_b6, ptr @hf_nas_5gs_spare_b5, ptr @hf_nas_5gs_spare_b4, ptr @hf_nas_5gs_spare_b3, ptr @hf_nas_5gs_spare_b2, ptr @hf_nas_5gs_sm_sdnaepc_b1, ptr @hf_nas_5gs_sm_apmqf_b0, ptr null], align 16

; Function Attrs: null_pointer_is_valid sspstrong uwtable
define internal zeroext i16 @de_nas_5gs_sm_5gsm_cap(ptr noundef %0, ptr noundef %1, ptr noundef %2, i32 noundef %3, i32 noundef %4, ptr noundef %5, i32 noundef %6) #0 {
  %8 = alloca i16, align 2
  %9 = alloca ptr, align 8
  %10 = alloca ptr, align 8
  %11 = alloca ptr, align 8
  %12 = alloca i32, align 4
  %13 = alloca i32, align 4
  %14 = alloca ptr, align 8
  %15 = alloca i32, align 4
  %16 = alloca i32, align 4
  %17 = alloca i32, align 4
  store ptr %0, ptr %9, align 8
  store ptr %1, ptr %10, align 8
  store ptr %2, ptr %11, align 8
  store i32 %3, ptr %12, align 4
  store i32 %4, ptr %13, align 4
  store ptr %5, ptr %14, align 8
  store i32 %6, ptr %15, align 4
  call void @llvm.lifetime.start.p0(i64 4, ptr %16) #11
  %18 = load i32, ptr %12, align 4
  store i32 %18, ptr %16, align 4
  %19 = load ptr, ptr %10, align 8
  %20 = load ptr, ptr %9, align 8
  %21 = load i32, ptr %16, align 4
  call void @proto_tree_add_bitmask_list(ptr noundef %19, ptr noundef %20, i32 noundef %21, i32 noundef 1, ptr noundef @de_nas_5gs_sm_5gsm_cap.flags1, i32 noundef 0)
  %22 = load i32, ptr %16, align 4
  %23 = add i32 %22, 1
  store i32 %23, ptr %16, align 4
  %24 = load i32, ptr %16, align 4
  %25 = load i32, ptr %12, align 4
  %26 = sub i32 %24, %25
  %27 = load i32, ptr %13, align 4
  %28 = icmp uge i32 %26, %27
  br i1 %28, label %29, label %32

29:                                               ; preds = %7
  %30 = load i32, ptr %13, align 4
  %31 = trunc i32 %30 to i16
  store i16 %31, ptr %8, align 2
  store i32 1, ptr %17, align 4
  br label %66

32:                                               ; preds = %7
  %33 = load ptr, ptr %10, align 8
  %34 = load ptr, ptr %9, align 8
  %35 = load i32, ptr %16, align 4
  call void @proto_tree_add_bitmask_list(ptr noundef %33, ptr noundef %34, i32 noundef %35, i32 noundef 1, ptr noundef @de_nas_5gs_sm_5gsm_cap.flags2, i32 noundef 0)
  %36 = load i32, ptr %16, align 4
  %37 = add i32 %36, 1
  store i32 %37, ptr %16, align 4
  %38 = load i32, ptr %13, align 4
  %39 = load i32, ptr %16, align 4
  %40 = load i32, ptr %12, align 4
  %41 = sub i32 %39, %40
  %42 = icmp ugt i32 %38, %41
  br i1 %42, label %43, label %61

43:                                               ; preds = %32
  %44 = load ptr, ptr %10, align 8
  %45 = load ptr, ptr %11, align 8
  %46 = load ptr, ptr %9, align 8
  %47 = load i32, ptr %16, align 4
  %48 = load i32, ptr %13, align 4
  %49 = load i32, ptr %16, align 4
  %50 = load i32, ptr %12, align 4
  %51 = sub i32 %49, %50
  %52 = sub i32 %48, %51
  %53 = call ptr @proto_tree_add_expert(ptr noundef %44, ptr noundef %45, ptr noundef @ei_nas_5gs_extraneous_data, ptr noundef %46, i32 noundef %47, i32 noundef %52)
  %54 = load i32, ptr %13, align 4
  %55 = load i32, ptr %16, align 4
  %56 = load i32, ptr %12, align 4
  %57 = sub i32 %55, %56
  %58 = sub i32 %54, %57
  %59 = load i32, ptr %16, align 4
  %60 = add i32 %59, %58
  store i32 %60, ptr %16, align 4
  br label %61

61:                                               ; preds = %43, %32
  %62 = load i32, ptr %16, align 4
  %63 = load i32, ptr %12, align 4
  %64 = sub i32 %62, %63
  %65 = trunc i32 %64 to i16
  store i16 %65, ptr %8, align 2
  store i32 1, ptr %17, align 4
  br label %66

66:                                               ; preds = %61, %29
  call void @llvm.lifetime.end.p0(i64 4, ptr %16) #11
  %67 = load i16, ptr %8, align 2
  ret i16 %67
}