; Function Attrs: null_pointer_is_valid sspstrong uwtable
define internal noundef zeroext i16 @de_nas_5gs_sm_5gsm_cap(ptr noundef %0, ptr noundef %1, ptr noundef %2, i32 noundef %3, i32 noundef %4, ptr readnone captures(none) %5, i32 %6) #0 {
  tail call void @proto_tree_add_bitmask_list(ptr noundef %1, ptr noundef %0, i32 noundef %3, i32 noundef 1, ptr noundef nonnull @de_nas_5gs_sm_5gsm_cap.flags1, i32 noundef 0)
  %8 = icmp ult i32 %4, 2
  br i1 %8, label %18, label %9

9:                                                ; preds = %7
  %10 = add i32 %3, 1
  tail call void @proto_tree_add_bitmask_list(ptr noundef %1, ptr noundef %0, i32 noundef %10, i32 noundef 1, ptr noundef nonnull @de_nas_5gs_sm_5gsm_cap.flags2, i32 noundef 0)
  %11 = add i32 %3, 2
  %.not = icmp eq i32 %4, 2
  br i1 %.not, label %16, label %12

12:                                               ; preds = %9
  %13 = add i32 %4, -2
  %14 = tail call ptr @proto_tree_add_expert(ptr noundef %1, ptr noundef %2, ptr noundef nonnull @ei_nas_5gs_extraneous_data, ptr noundef %0, i32 noundef %11, i32 noundef %13)
  %15 = add i32 %4, %3
  br label %16

16:                                               ; preds = %12, %9
  %.0 = phi i32 [ %15, %12 ], [ %11, %9 ]
  %17 = sub i32 %.0, %3
  br label %18

18:                                               ; preds = %7, %16
  %.029.in = phi i32 [ %17, %16 ], [ %4, %7 ]
  %.029 = trunc i32 %.029.in to i16
  ret i16 %.029
}